; Function Attrs: mustprogress uwtable
define dso_local void @_ZN9CrowdTool10handleStepEv(ptr nocapture noundef nonnull readonly align 8 dereferenceable(28) %0) unnamed_addr #0 align 2 {
  %2 = getelementptr inbounds i8, ptr %0, i64 16
  %3 = load ptr, ptr %2, align 8
  %.not = icmp eq ptr %3, null
  br i1 %.not, label %7, label %4

4:                                                ; preds = %1
  tail call void @_ZN14CrowdToolState10updateTickEf(ptr noundef nonnull align 8 dereferenceable(101001) %3, float noundef 0x3FA99999A0000000)
  %5 = load ptr, ptr %2, align 8
  %6 = getelementptr inbounds i8, ptr %5, i64 101000
  store i8 0, ptr %6, align 8
  br label %7

7:                                                ; preds = %1, %4
  ret void
}